
hello.o:     file format elf32-littlearm


Disassembly of section .text:

00000000 <data_process>:
   0:	e52db004 	push	{fp}		; (str fp, [sp, #-4]!)
   4:	e28db000 	add	fp, sp, #0
   8:	e24dd00c 	sub	sp, sp, #12
   c:	e3a03000 	mov	r3, #0
  10:	e50b300c 	str	r3, [fp, #-12]
  14:	e3a03000 	mov	r3, #0
  18:	e50b3008 	str	r3, [fp, #-8]
  1c:	ea000006 	b	3c <data_process+0x3c>
  20:	e51b200c 	ldr	r2, [fp, #-12]
  24:	e51b3008 	ldr	r3, [fp, #-8]
  28:	e0823003 	add	r3, r2, r3
  2c:	e50b300c 	str	r3, [fp, #-12]
  30:	e51b3008 	ldr	r3, [fp, #-8]
  34:	e2833001 	add	r3, r3, #1
  38:	e50b3008 	str	r3, [fp, #-8]
  3c:	e51b3008 	ldr	r3, [fp, #-8]
  40:	e3530063 	cmp	r3, #99	; 0x63
  44:	dafffff5 	ble	20 <data_process+0x20>
  48:	e51b300c 	ldr	r3, [fp, #-12]
  4c:	e1a00003 	mov	r0, r3
  50:	e28bd000 	add	sp, fp, #0
  54:	e8bd0800 	pop	{fp}
  58:	e12fff1e 	bx	lr

0000005c <main>:
  5c:	e92d4810 	push	{r4, fp, lr}
  60:	e28db008 	add	fp, sp, #8
  64:	e24dd00c 	sub	sp, sp, #12
  68:	e50b0010 	str	r0, [fp, #-16]
  6c:	e50b1014 	str	r1, [fp, #-20]
  70:	e59f4020 	ldr	r4, [pc, #32]	; 98 <main+0x3c>
  74:	ebfffffe 	bl	0 <data_process>
  78:	e1a03000 	mov	r3, r0
  7c:	e1a00004 	mov	r0, r4
  80:	e1a01003 	mov	r1, r3
  84:	ebfffffe 	bl	0 <printf>
  88:	e3a03000 	mov	r3, #0
  8c:	e1a00003 	mov	r0, r3
  90:	e24bd008 	sub	sp, fp, #8
  94:	e8bd8810 	pop	{r4, fp, pc}
  98:	00000000 	andeq	r0, r0, r0
